target datalayout = "e-m:e-p270:32:32-p271:32:32-p272:64:64-i64:64-i128:128-f80:128-n8:16:32:64-S128"
target triple = "x86_64-pc-linux-gnu"

%struct.PJ_LPZ = type { double, double, double }
%struct.PJ_XYZ = type { double, double, double }

; Function Attrs: mustprogress nounwind uwtable
define internal void @_ZL18latlong_forward_3d6PJ_LPZP8PJconsts(ptr dead_on_unwind noalias writable sret(%struct.PJ_XYZ) align 8 %0, ptr noundef byval(%struct.PJ_LPZ) align 8 %1, ptr noundef %2) #2 {
  %4 = alloca ptr, align 8
  store ptr %2, ptr %4, align 8, !tbaa !3
  call void @llvm.memset.p0.i64(ptr align 8 %0, i8 0, i64 24, i1 false)
  %5 = getelementptr inbounds nuw %struct.PJ_LPZ, ptr %1, i32 0, i32 0
  %6 = load double, ptr %5, align 8, !tbaa !58
  %7 = getelementptr inbounds nuw %struct.PJ_XYZ, ptr %0, i32 0, i32 0
  store double %6, ptr %7, align 8, !tbaa !56
  %8 = getelementptr inbounds nuw %struct.PJ_LPZ, ptr %1, i32 0, i32 1
  %9 = load double, ptr %8, align 8, !tbaa !61
  %10 = getelementptr inbounds nuw %struct.PJ_XYZ, ptr %0, i32 0, i32 1
  store double %9, ptr %10, align 8, !tbaa !60
  %11 = getelementptr inbounds nuw %struct.PJ_LPZ, ptr %1, i32 0, i32 2
  %12 = load double, ptr %11, align 8, !tbaa !63
  %13 = getelementptr inbounds nuw %struct.PJ_XYZ, ptr %0, i32 0, i32 2
  store double %12, ptr %13, align 8, !tbaa !62
  ret void
}